; ModuleID = 'bench/entt/original/odr.ll'
source_filename = "bench/entt/original/odr.ll"
target datalayout = "e-m:e-p270:32:32-p271:32:32-p272:64:64-i64:64-i128:128-f80:128-n8:16:32:64-S128"
target triple = "x86_64-pc-linux-gnu"

%"class.std::__shared_count" = type { ptr }

$_ZN4entt7locatorINS_8meta_ctxEE7serviceE = comdat any

$_ZNSt12__shared_ptrIN4entt8meta_ctxELN9__gnu_cxx12_Lock_policyE2EED2Ev = comdat any

$_ZNSt16_Sp_counted_baseILN9__gnu_cxx12_Lock_policyE2EE24_M_release_last_use_coldEv = comdat any

@_ZN4entt7locatorINS_8meta_ctxEE7serviceE = linkonce_odr hidden global { ptr, %"class.std::__shared_count" } zeroinitializer, comdat, align 8
@_ZGVN4entt7locatorINS_8meta_ctxEE7serviceE = linkonce_odr hidden local_unnamed_addr global i64 0, comdat($_ZN4entt7locatorINS_8meta_ctxEE7serviceE), align 8
@__dso_handle = external hidden global i8
@__libc_single_threaded = external local_unnamed_addr global i8, align 1
@llvm.global_ctors = appending global [1 x { i32, ptr, ptr }] [{ i32, ptr, ptr } { i32 65535, ptr @__cxx_global_var_init, ptr @_ZN4entt7locatorINS_8meta_ctxEE7serviceE }]
@llvm.used = appending global [1 x ptr] [ptr @_ZN4entt7locatorINS_8meta_ctxEE7serviceE], section "llvm.metadata"

; Function Attrs: nofree nounwind uwtable
define internal void @__cxx_global_var_init() #0 section ".text.startup" comdat($_ZN4entt7locatorINS_8meta_ctxEE7serviceE) {
  %1 = load i8, ptr @_ZGVN4entt7locatorINS_8meta_ctxEE7serviceE, align 8
  %2 = icmp eq i8 %1, 0
  br i1 %2, label %3, label %5

3:                                                ; preds = %0
  store i8 1, ptr @_ZGVN4entt7locatorINS_8meta_ctxEE7serviceE, align 8
  %4 = tail call i32 @__cxa_atexit(ptr nonnull @_ZNSt12__shared_ptrIN4entt8meta_ctxELN9__gnu_cxx12_Lock_policyE2EED2Ev, ptr nonnull @_ZN4entt7locatorINS_8meta_ctxEE7serviceE, ptr nonnull @__dso_handle) #4
  br label %5

5:                                                ; preds = %3, %0
  ret void
}

; Function Attrs: mustprogress nounwind uwtable
define linkonce_odr hidden void @_ZNSt12__shared_ptrIN4entt8meta_ctxELN9__gnu_cxx12_Lock_policyE2EED2Ev(ptr noundef nonnull align 8 dereferenceable(16) %0) unnamed_addr #1 comdat align 2 personality ptr @__gxx_personality_v0 {
  %2 = getelementptr inbounds nuw i8, ptr %0, i64 8
  %3 = load ptr, ptr %2, align 8, !tbaa !3
  %.not.i = icmp eq ptr %3, null
  br i1 %.not.i, label %_ZNSt14__shared_countILN9__gnu_cxx12_Lock_policyE2EED2Ev.exit, label %4

4:                                                ; preds = %1
  %5 = getelementptr inbounds nuw i8, ptr %3, i64 8
  %6 = load atomic i64, ptr %5 acquire, align 8
  %7 = icmp eq i64 %6, 4294967297
  %8 = trunc i64 %6 to i32
  br i1 %7, label %9, label %17

9:                                                ; preds = %4
  store i32 0, ptr %5, align 8, !tbaa !9
  %10 = getelementptr inbounds nuw i8, ptr %3, i64 12
  store i32 0, ptr %10, align 4, !tbaa !12
  %11 = load ptr, ptr %3, align 8, !tbaa !13
  %12 = getelementptr inbounds nuw i8, ptr %11, i64 16
  %13 = load ptr, ptr %12, align 8
  tail call void %13(ptr noundef nonnull align 8 dereferenceable(16) %3) #4
  %14 = load ptr, ptr %3, align 8, !tbaa !13
  %15 = getelementptr inbounds nuw i8, ptr %14, i64 24
  %16 = load ptr, ptr %15, align 8
  tail call void %16(ptr noundef nonnull align 8 dereferenceable(16) %3) #4
  br label %_ZNSt14__shared_countILN9__gnu_cxx12_Lock_policyE2EED2Ev.exit

17:                                               ; preds = %4
  %18 = load i8, ptr @__libc_single_threaded, align 1, !tbaa !15
  %.not.i.i = icmp eq i8 %18, 0
  br i1 %.not.i.i, label %21, label %19

19:                                               ; preds = %17
  %20 = add nsw i32 %8, -1
  store i32 %20, ptr %5, align 4, !tbaa !16
  br label %_ZN9__gnu_cxx27__exchange_and_add_dispatchEPii.exit.i.i

21:                                               ; preds = %17
  %22 = atomicrmw volatile add ptr %5, i32 -1 acq_rel, align 4
  br label %_ZN9__gnu_cxx27__exchange_and_add_dispatchEPii.exit.i.i

_ZN9__gnu_cxx27__exchange_and_add_dispatchEPii.exit.i.i: ; preds = %21, %19
  %.0.i.i.i = phi i32 [ %8, %19 ], [ %22, %21 ]
  %23 = icmp eq i32 %.0.i.i.i, 1
  br i1 %23, label %24, label %_ZNSt14__shared_countILN9__gnu_cxx12_Lock_policyE2EED2Ev.exit, !prof !17

24:                                               ; preds = %_ZN9__gnu_cxx27__exchange_and_add_dispatchEPii.exit.i.i
  tail call void @_ZNSt16_Sp_counted_baseILN9__gnu_cxx12_Lock_policyE2EE24_M_release_last_use_coldEv(ptr noundef nonnull align 8 dereferenceable(16) %3) #4
  br label %_ZNSt14__shared_countILN9__gnu_cxx12_Lock_policyE2EED2Ev.exit

_ZNSt14__shared_countILN9__gnu_cxx12_Lock_policyE2EED2Ev.exit: ; preds = %1, %9, %_ZN9__gnu_cxx27__exchange_and_add_dispatchEPii.exit.i.i, %24
  ret void
}

; Function Attrs: nofree nounwind
declare i32 @__cxa_atexit(ptr, ptr, ptr) local_unnamed_addr #2

declare i32 @__gxx_personality_v0(...)

; Function Attrs: mustprogress noinline nounwind uwtable
define linkonce_odr void @_ZNSt16_Sp_counted_baseILN9__gnu_cxx12_Lock_policyE2EE24_M_release_last_use_coldEv(ptr noundef nonnull align 8 dereferenceable(16) %0) local_unnamed_addr #3 comdat align 2 personality ptr @__gxx_personality_v0 {
  %2 = load ptr, ptr %0, align 8, !tbaa !13
  %3 = getelementptr inbounds nuw i8, ptr %2, i64 16
  %4 = load ptr, ptr %3, align 8
  tail call void %4(ptr noundef nonnull align 8 dereferenceable(16) %0) #4
  %5 = getelementptr inbounds nuw i8, ptr %0, i64 12
  %6 = load i8, ptr @__libc_single_threaded, align 1, !tbaa !15
  %.not.i = icmp eq i8 %6, 0
  br i1 %.not.i, label %10, label %7

7:                                                ; preds = %1
  %8 = load i32, ptr %5, align 4, !tbaa !16
  %9 = add nsw i32 %8, -1
  store i32 %9, ptr %5, align 4, !tbaa !16
  br label %_ZN9__gnu_cxx27__exchange_and_add_dispatchEPii.exit.i

10:                                               ; preds = %1
  %11 = atomicrmw volatile add ptr %5, i32 -1 acq_rel, align 4
  br label %_ZN9__gnu_cxx27__exchange_and_add_dispatchEPii.exit.i

_ZN9__gnu_cxx27__exchange_and_add_dispatchEPii.exit.i: ; preds = %10, %7
  %.0.i.i = phi i32 [ %8, %7 ], [ %11, %10 ]
  %12 = icmp eq i32 %.0.i.i, 1
  br i1 %12, label %13, label %_ZNSt16_Sp_counted_baseILN9__gnu_cxx12_Lock_policyE2EE19_M_release_last_useEv.exit

13:                                               ; preds = %_ZN9__gnu_cxx27__exchange_and_add_dispatchEPii.exit.i
  %14 = load ptr, ptr %0, align 8, !tbaa !13
  %15 = getelementptr inbounds nuw i8, ptr %14, i64 24
  %16 = load ptr, ptr %15, align 8
  tail call void %16(ptr noundef nonnull align 8 dereferenceable(16) %0) #4
  br label %_ZNSt16_Sp_counted_baseILN9__gnu_cxx12_Lock_policyE2EE19_M_release_last_useEv.exit

_ZNSt16_Sp_counted_baseILN9__gnu_cxx12_Lock_policyE2EE19_M_release_last_useEv.exit: ; preds = %_ZN9__gnu_cxx27__exchange_and_add_dispatchEPii.exit.i, %13
  ret void
}


!llvm.module.flags = !{!0, !1, !2}

!0 = !{i32 1, !"wchar_size", i32 4}
!1 = !{i32 8, !"PIC Level", i32 2}
!2 = !{i32 7, !"uwtable", i32 2}
!3 = !{!4, !5, i64 0}
!4 = !{!"_ZTSSt14__shared_countILN9__gnu_cxx12_Lock_policyE2EE", !5, i64 0}
!5 = !{!"p1 _ZTSSt16_Sp_counted_baseILN9__gnu_cxx12_Lock_policyE2EE", !6, i64 0}
!6 = !{!"any pointer", !7, i64 0}
!7 = !{!"omnipotent char", !8, i64 0}
!8 = !{!"Simple C++ TBAA"}
!9 = !{!10, !11, i64 8}
!10 = !{!"_ZTSSt16_Sp_counted_baseILN9__gnu_cxx12_Lock_policyE2EE", !11, i64 8, !11, i64 12}
!11 = !{!"int", !7, i64 0}
!12 = !{!10, !11, i64 12}
!13 = !{!14, !14, i64 0}
!14 = !{!"vtable pointer", !8, i64 0}
!15 = !{!7, !7, i64 0}
!16 = !{!11, !11, i64 0}
!17 = !{!"branch_weights", !"expected", i32 1, i32 2000}
